target datalayout = "e-m:e-p270:32:32-p271:32:32-p272:64:64-i64:64-i128:128-f80:128-n8:16:32:64-S128"
target triple = "x86_64-pc-linux-gnu"

%struct.client_request = type { i32, ptr, i8, i8, i32, ptr, ptr, i32, i32 }

@.str.41 = private unnamed_addr constant [5 x i8] c"TRUE\00", align 1

; Function Attrs: nounwind uwtable
define internal ptr @_client_req_get_val(ptr noundef %0, ptr noundef %1) #0 {
  %3 = alloca ptr, align 8
  %4 = alloca ptr, align 8
  %5 = alloca ptr, align 8
  %6 = alloca i32, align 4
  %7 = alloca i32, align 4
  store ptr %0, ptr %4, align 8
  store ptr %1, ptr %5, align 8
  call void @llvm.lifetime.start.p0(i64 4, ptr %6) #7
  store i32 0, ptr %6, align 4
  br label %8

8:                                                ; preds = %37, %2
  %9 = load i32, ptr %6, align 4
  %10 = load ptr, ptr %4, align 8
  %11 = getelementptr inbounds nuw %struct.client_request, ptr %10, i32 0, i32 8
  %12 = load i32, ptr %11, align 4
  %13 = icmp ult i32 %9, %12
  br i1 %13, label %14, label %40

14:                                               ; preds = %8
  %15 = load ptr, ptr %5, align 8
  %16 = load ptr, ptr %4, align 8
  %17 = getelementptr inbounds nuw %struct.client_request, ptr %16, i32 0, i32 6
  %18 = load ptr, ptr %17, align 8
  %19 = load i32, ptr %6, align 4
  %20 = mul nsw i32 %19, 2
  %21 = sext i32 %20 to i64
  %22 = getelementptr inbounds ptr, ptr %18, i64 %21
  %23 = load ptr, ptr %22, align 8
  %24 = call i32 @slurm_xstrcmp(ptr noundef %15, ptr noundef %23)
  %25 = icmp ne i32 %24, 0
  br i1 %25, label %36, label %26

26:                                               ; preds = %14
  %27 = load ptr, ptr %4, align 8
  %28 = getelementptr inbounds nuw %struct.client_request, ptr %27, i32 0, i32 6
  %29 = load ptr, ptr %28, align 8
  %30 = load i32, ptr %6, align 4
  %31 = mul nsw i32 %30, 2
  %32 = add nsw i32 %31, 1
  %33 = sext i32 %32 to i64
  %34 = getelementptr inbounds ptr, ptr %29, i64 %33
  %35 = load ptr, ptr %34, align 8
  store ptr %35, ptr %3, align 8
  store i32 1, ptr %7, align 4
  br label %41

36:                                               ; preds = %14
  br label %37

37:                                               ; preds = %36
  %38 = load i32, ptr %6, align 4
  %39 = add nsw i32 %38, 1
  store i32 %39, ptr %6, align 4
  br label %8, !llvm.loop !21

40:                                               ; preds = %8
  store ptr null, ptr %3, align 8
  store i32 1, ptr %7, align 4
  br label %41

41:                                               ; preds = %40, %26
  call void @llvm.lifetime.end.p0(i64 4, ptr %6) #7
  %42 = load ptr, ptr %3, align 8
  ret ptr %42
}

; Function Attrs: nounwind uwtable
define dso_local zeroext i1 @client_req_get_bool(ptr noundef %0, ptr noundef %1, ptr noundef %2) #0 {
  %4 = alloca i1, align 1
  %5 = alloca ptr, align 8
  %6 = alloca ptr, align 8
  %7 = alloca ptr, align 8
  %8 = alloca ptr, align 8
  %9 = alloca i32, align 4
  store ptr %0, ptr %5, align 8
  store ptr %1, ptr %6, align 8
  store ptr %2, ptr %7, align 8
  call void @llvm.lifetime.start.p0(i64 8, ptr %8) #7
  %10 = load ptr, ptr %5, align 8
  %11 = load ptr, ptr %6, align 8
  %12 = call ptr @_client_req_get_val(ptr noundef %10, ptr noundef %11)
  store ptr %12, ptr %8, align 8
  %13 = load ptr, ptr %8, align 8
  %14 = icmp eq ptr %13, null
  br i1 %14, label %15, label %16

15:                                               ; preds = %3
  store i1 false, ptr %4, align 1
  store i32 1, ptr %9, align 4
  br label %25

16:                                               ; preds = %3
  %17 = load ptr, ptr %8, align 8
  %18 = call i32 @slurm_xstrcasecmp(ptr noundef %17, ptr noundef @.str.41)
  %19 = icmp ne i32 %18, 0
  br i1 %19, label %22, label %20

20:                                               ; preds = %16
  %21 = load ptr, ptr %7, align 8
  store i8 1, ptr %21, align 1
  br label %24

22:                                               ; preds = %16
  %23 = load ptr, ptr %7, align 8
  store i8 0, ptr %23, align 1
  br label %24

24:                                               ; preds = %22, %20
  store i1 true, ptr %4, align 1
  store i32 1, ptr %9, align 4
  br label %25

25:                                               ; preds = %24, %15
  call void @llvm.lifetime.end.p0(i64 8, ptr %8) #7
  %26 = load i1, ptr %4, align 1
  ret i1 %26
}